; Function Attrs: mustprogress nofree norecurse nosync nounwind willreturn memory(readwrite, inaccessiblemem: none) uwtable
define internal noundef range(i32 0, 1114112) i32 @_ZL34T_UConverter_getNextUChar_UTF32_BEP23UConverterToUnicodeArgsP10UErrorCode(ptr noundef captures(none) %0, ptr noundef writeonly captures(none) %1) #2 {
  %3 = getelementptr inbounds nuw i8, ptr %0, i64 16
  %4 = load ptr, ptr %3, align 8, !tbaa !3
  %5 = getelementptr inbounds nuw i8, ptr %0, i64 24
  %6 = load ptr, ptr %5, align 8, !tbaa !14
  %.not = icmp ult ptr %4, %6
  br i1 %.not, label %7, label %.sink.split

7:                                                ; preds = %2
  %8 = ptrtoint ptr %6 to i64
  %9 = ptrtoint ptr %4 to i64
  %10 = sub i64 %8, %9
  %11 = trunc i64 %10 to i32
  %12 = icmp slt i32 %11, 4
  br i1 %12, label %13, label %22

13:                                               ; preds = %7
  %14 = getelementptr inbounds nuw i8, ptr %0, i64 8
  %15 = load ptr, ptr %14, align 8, !tbaa !16
  %16 = getelementptr inbounds nuw i8, ptr %15, i64 65
  %sext = shl i64 %10, 32
  %17 = ashr exact i64 %sext, 32
  tail call void @llvm.memcpy.p0.p0.i64(ptr nonnull align 1 %16, ptr align 1 %4, i64 %17, i1 false)
  %18 = trunc i64 %10 to i8
  %19 = load ptr, ptr %14, align 8, !tbaa !16
  %20 = getelementptr inbounds nuw i8, ptr %19, i64 64
  store i8 %18, ptr %20, align 8, !tbaa !17
  %21 = getelementptr inbounds i8, ptr %4, i64 %17
  store ptr %21, ptr %3, align 8, !tbaa !3
  br label %.sink.split

22:                                               ; preds = %7
  %23 = load i8, ptr %4, align 1, !tbaa !23
  %24 = zext i8 %23 to i32
  %25 = shl nuw i32 %24, 24
  %26 = getelementptr inbounds nuw i8, ptr %4, i64 1
  %27 = load i8, ptr %26, align 1, !tbaa !23
  %28 = zext i8 %27 to i32
  %29 = shl nuw nsw i32 %28, 16
  %30 = or disjoint i32 %29, %25
  %31 = getelementptr inbounds nuw i8, ptr %4, i64 2
  %32 = load i8, ptr %31, align 1, !tbaa !23
  %33 = zext i8 %32 to i32
  %34 = shl nuw nsw i32 %33, 8
  %35 = getelementptr inbounds nuw i8, ptr %4, i64 3
  %36 = load i8, ptr %35, align 1, !tbaa !23
  %37 = zext i8 %36 to i32
  %38 = or disjoint i32 %34, %37
  %39 = or disjoint i32 %38, %30
  %40 = getelementptr inbounds nuw i8, ptr %4, i64 4
  store ptr %40, ptr %3, align 8, !tbaa !3
  %41 = icmp ugt i32 %30, 1114111
  %42 = and i32 %39, 2095104
  %43 = icmp eq i32 %42, 55296
  %or.cond = select i1 %41, i1 true, i1 %43
  br i1 %or.cond, label %44, label %51

44:                                               ; preds = %22
  %45 = getelementptr inbounds nuw i8, ptr %0, i64 8
  %46 = load ptr, ptr %45, align 8, !tbaa !16
  %47 = getelementptr inbounds nuw i8, ptr %46, i64 65
  %48 = load i32, ptr %4, align 1
  store i32 %48, ptr %47, align 1
  %49 = load ptr, ptr %45, align 8, !tbaa !16
  %50 = getelementptr inbounds nuw i8, ptr %49, i64 64
  store i8 4, ptr %50, align 8, !tbaa !17
  br label %.sink.split

.sink.split:                                      ; preds = %2, %13, %44
  %.sink = phi i32 [ 12, %44 ], [ 11, %13 ], [ 8, %2 ]
  store i32 %.sink, ptr %1, align 4, !tbaa !30
  br label %51

51:                                               ; preds = %.sink.split, %22
  %.0 = phi i32 [ %39, %22 ], [ 65535, %.sink.split ]
  ret i32 %.0
}